; Function Attrs: mustprogress uwtable
define void @_ZN10open_spiel10algorithms23RecordBatchedTrajectoryERKNS_4GameERKSt6vectorINS_13TabularPolicyESaIS5_EERKSt13unordered_mapINSt7__cxx1112basic_stringIcSt11char_traitsIcESaIcEEEiSt4hashISG_ESt8equal_toISG_ESaISt4pairIKSG_iEEEibii(ptr dead_on_unwind noalias writable sret(%"struct.open_spiel::algorithms::BatchedTrajectory") align 8 %0, ptr noundef nonnull align 8 dereferenceable(280) %1, ptr nocapture noundef nonnull readonly align 8 dereferenceable(24) %2, ptr noundef nonnull align 8 dereferenceable(56) %3, i32 noundef %4, i1 noundef zeroext %5, i32 noundef %6, i32 noundef %7) local_unnamed_addr #3 {
  %9 = alloca %"class.std::mersenne_twister_engine", align 8
  %10 = zext i32 %6 to i64
  store i64 %10, ptr %9, align 8
  br label %11

11:                                               ; preds = %11, %8
  %12 = phi i64 [ %10, %8 ], [ %17, %11 ]
  %.011.i.i = phi i64 [ 1, %8 ], [ %19, %11 ]
  %13 = lshr i64 %12, 30
  %14 = xor i64 %13, %12
  %15 = mul nuw nsw i64 %14, 1812433253
  %16 = add nuw i64 %15, %.011.i.i
  %17 = and i64 %16, 4294967295
  %18 = getelementptr inbounds [624 x i64], ptr %9, i64 0, i64 %.011.i.i
  store i64 %17, ptr %18, align 8
  %19 = add nuw nsw i64 %.011.i.i, 1
  %exitcond.not.i.i = icmp eq i64 %19, 624
  br i1 %exitcond.not.i.i, label %_ZNSt23mersenne_twister_engineImLm32ELm624ELm397ELm31ELm2567483615ELm11ELm4294967295ELm7ELm2636928640ELm15ELm4022730752ELm18ELm1812433253EEC2Em.exit, label %11, !llvm.loop !48

_ZNSt23mersenne_twister_engineImLm32ELm624ELm397ELm31ELm2567483615ELm11ELm4294967295ELm7ELm2636928640ELm15ELm4022730752ELm18ELm1812433253EEC2Em.exit: ; preds = %11
  %20 = getelementptr inbounds nuw i8, ptr %9, i64 4992
  store i64 624, ptr %20, align 8
  call void @_ZN10open_spiel10algorithms23RecordBatchedTrajectoryERKNS_4GameERKSt6vectorINS_13TabularPolicyESaIS5_EERKSt13unordered_mapINSt7__cxx1112basic_stringIcSt11char_traitsIcESaIcEEEiSt4hashISG_ESt8equal_toISG_ESaISt4pairIKSG_iEEEibPSt23mersenne_twister_engineImLm32ELm624ELm397ELm31ELm2567483615ELm11ELm4294967295ELm7ELm2636928640ELm15ELm4022730752ELm18ELm1812433253EEi(ptr dead_on_unwind writable sret(%"struct.open_spiel::algorithms::BatchedTrajectory") align 8 %0, ptr noundef nonnull align 8 dereferenceable(280) %1, ptr noundef nonnull align 8 dereferenceable(24) %2, ptr noundef nonnull align 8 dereferenceable(56) %3, i32 noundef %4, i1 noundef zeroext %5, ptr noundef nonnull %9, i32 noundef %7)
  ret void
}